; Function Attrs: nounwind uwtable
define dso_local void @range_set_append(ptr noundef captures(none) %0, i64 noundef %1, i64 noundef %2) local_unnamed_addr #0 {
  %4 = getelementptr inbounds nuw i8, ptr %0, i64 4
  %5 = load i32, ptr %4, align 4, !tbaa !12
  %6 = load i32, ptr %0, align 8, !tbaa !4
  %.not.i = icmp ult i32 %5, %6
  br i1 %.not.i, label %.range_set_grow.exit_crit_edge.i, label %st_mult.exit.i.i

.range_set_grow.exit_crit_edge.i:                 ; preds = %3
  %.phi.trans.insert.i = getelementptr inbounds nuw i8, ptr %0, i64 8
  %.pre.i = load ptr, ptr %.phi.trans.insert.i, align 8, !tbaa !11
  br label %range_set_append_unsafe.exit

st_mult.exit.i.i:                                 ; preds = %3
  %7 = zext i32 %5 to i64
  %8 = add nuw nsw i64 %7, 1
  %9 = mul i32 %6, 3
  %10 = add i32 %9, 48
  %11 = lshr i32 %10, 1
  %12 = zext nneg i32 %11 to i64
  %storemerge14.i.i = tail call i64 @llvm.umax.i64(i64 %8, i64 %12)
  %storemerge.i.i = trunc i64 %storemerge14.i.i to i32
  store i32 %storemerge.i.i, ptr %0, align 8, !tbaa !4
  %13 = getelementptr inbounds nuw i8, ptr %0, i64 8
  %14 = load ptr, ptr %13, align 8, !tbaa !11
  %15 = shl nuw nsw i64 %storemerge14.i.i, 4
  %16 = and i64 %15, 68719476720
  %17 = tail call ptr @xrealloc(ptr noundef %14, i64 noundef %16) #16
  store ptr %17, ptr %13, align 8, !tbaa !11
  %.pre7.i = load i32, ptr %4, align 4, !tbaa !12
  br label %range_set_append_unsafe.exit

range_set_append_unsafe.exit:                     ; preds = %.range_set_grow.exit_crit_edge.i, %st_mult.exit.i.i
  %18 = phi i32 [ %5, %.range_set_grow.exit_crit_edge.i ], [ %.pre7.i, %st_mult.exit.i.i ]
  %19 = phi ptr [ %.pre.i, %.range_set_grow.exit_crit_edge.i ], [ %17, %st_mult.exit.i.i ]
  %20 = zext i32 %18 to i64
  %21 = getelementptr inbounds nuw %struct.range, ptr %19, i64 %20
  store i64 %1, ptr %21, align 8, !tbaa !13
  %22 = getelementptr inbounds nuw %struct.range, ptr %19, i64 %20, i32 1
  store i64 %2, ptr %22, align 8, !tbaa !16
  %23 = add i32 %18, 1
  store i32 %23, ptr %4, align 4, !tbaa !12
  ret void
}